; Function Attrs: mustprogress uwtable
define internal fastcc void @_ZN12rewriter_tplIN12_GLOBAL__N_115th_rewriter_cfgEE5resetEv(ptr noundef nonnull align 8 dereferenceable(536) %this) unnamed_addr #3 align 2 {
entry:
  %m_cfg = getelementptr inbounds i8, ptr %this, i64 144
  %0 = load ptr, ptr %m_cfg, align 8
  %m_subst.i = getelementptr inbounds i8, ptr %0, i64 2376
  store ptr null, ptr %m_subst.i, align 8
  tail call void @_ZN13rewriter_core5resetEv(ptr noundef nonnull align 8 dereferenceable(144) %this)
  %m_bindings = getelementptr inbounds i8, ptr %this, i64 160
  %1 = load ptr, ptr %m_bindings, align 8
  %tobool.not.i = icmp eq ptr %1, null
  br i1 %tobool.not.i, label %_ZN6vectorIP4exprLb0EjE5resetEv.exit, label %if.then.i

if.then.i:                                        ; preds = %entry
  %arrayidx.i = getelementptr inbounds i8, ptr %1, i64 -4
  store i32 0, ptr %arrayidx.i, align 4
  br label %_ZN6vectorIP4exprLb0EjE5resetEv.exit

_ZN6vectorIP4exprLb0EjE5resetEv.exit:             ; preds = %entry, %if.then.i
  %m_shifts = getelementptr inbounds i8, ptr %this, i64 528
  %2 = load ptr, ptr %m_shifts, align 8
  %tobool.not.i1 = icmp eq ptr %2, null
  br i1 %tobool.not.i1, label %_ZN6vectorIjLb0EjE5resetEv.exit, label %if.then.i2

if.then.i2:                                       ; preds = %_ZN6vectorIP4exprLb0EjE5resetEv.exit
  %arrayidx.i3 = getelementptr inbounds i8, ptr %2, i64 -4
  store i32 0, ptr %arrayidx.i3, align 4
  br label %_ZN6vectorIjLb0EjE5resetEv.exit

_ZN6vectorIjLb0EjE5resetEv.exit:                  ; preds = %_ZN6vectorIP4exprLb0EjE5resetEv.exit, %if.then.i2
  %m_shifter = getelementptr inbounds i8, ptr %this, i64 168
  tail call void @_ZN13rewriter_core5resetEv(ptr noundef nonnull align 8 dereferenceable(144) %m_shifter)
  %m_inv_shifter = getelementptr inbounds i8, ptr %this, i64 328
  tail call void @_ZN13rewriter_core5resetEv(ptr noundef nonnull align 8 dereferenceable(144) %m_inv_shifter)
  ret void
}